; Function Attrs: mustprogress nofree norecurse nosync nounwind willreturn memory(readwrite, inaccessiblemem: none) uwtable
define dso_local void @_ZN5clang17ObjCInterfaceDecl22setExternallyCompletedEv(ptr nocapture noundef nonnull readonly align 8 dereferenceable(128) %0) local_unnamed_addr #7 align 2 {
  %2 = getelementptr inbounds nuw i8, ptr %0, i64 120
  %.0.copyload.i.i.i.i = load i64, ptr %2, align 8
  %3 = and i64 %.0.copyload.i.i.i.i, -8
  %4 = inttoptr i64 %3 to ptr
  %5 = getelementptr inbounds nuw i8, ptr %4, i64 72
  %6 = load i8, ptr %5, align 8
  %7 = or i8 %6, 1
  store i8 %7, ptr %5, align 8
  ret void
}